target datalayout = "e-m:e-p270:32:32-p271:32:32-p272:64:64-i64:64-i128:128-f80:128-n8:16:32:64-S128"
target triple = "x86_64-pc-linux-gnu"

%"class.base::BasicStringPiece" = type { ptr, i64 }

; Function Attrs: mustprogress nounwind uwtable
define weak_odr noundef ptr @_ZNK4base16BasicStringPieceINSt7__cxx1112basic_stringIcSt11char_traitsIcESaIcEEEE4dataEv(ptr noundef nonnull align 8 dereferenceable(16) %0) #0 comdat align 2 {
  %2 = alloca ptr, align 8
  store ptr %0, ptr %2, align 8, !tbaa !3
  %3 = load ptr, ptr %2, align 8
  %4 = getelementptr inbounds nuw %"class.base::BasicStringPiece", ptr %3, i32 0, i32 0
  %5 = load ptr, ptr %4, align 8, !tbaa !8
  ret ptr %5
}

; Function Attrs: mustprogress nounwind uwtable
define weak_odr noundef i64 @_ZNK4base16BasicStringPieceINSt7__cxx1112basic_stringIcSt11char_traitsIcESaIcEEEE4sizeEv(ptr noundef nonnull align 8 dereferenceable(16) %0) #0 comdat align 2 {
  %2 = alloca ptr, align 8
  store ptr %0, ptr %2, align 8, !tbaa !3
  %3 = load ptr, ptr %2, align 8
  %4 = getelementptr inbounds nuw %"class.base::BasicStringPiece", ptr %3, i32 0, i32 1
  %5 = load i64, ptr %4, align 8, !tbaa !12
  ret i64 %5
}

; Function Attrs: mustprogress nounwind uwtable
define linkonce_odr noundef i64 @_ZN4base8internal18find_first_not_ofTINSt7__cxx1112basic_stringIcSt11char_traitsIcESaIcEEEEEmRKNS_16BasicStringPieceIT_EENS9_10value_typeEm(ptr noundef nonnull align 8 dereferenceable(16) %0, i8 noundef signext %1, i64 noundef %2) #0 comdat {
  %4 = alloca i64, align 8
  %5 = alloca ptr, align 8
  %6 = alloca i8, align 1
  %7 = alloca i64, align 8
  store ptr %0, ptr %5, align 8, !tbaa !3
  store i8 %1, ptr %6, align 1, !tbaa !25
  store i64 %2, ptr %7, align 8, !tbaa !19
  %8 = load ptr, ptr %5, align 8, !tbaa !3
  %9 = call noundef i64 @_ZNK4base16BasicStringPieceINSt7__cxx1112basic_stringIcSt11char_traitsIcESaIcEEEE4sizeEv(ptr noundef nonnull align 8 dereferenceable(16) %8)
  %10 = icmp eq i64 %9, 0
  br i1 %10, label %11, label %12

11:                                               ; preds = %3
  store i64 -1, ptr %4, align 8
  br label %35

12:                                               ; preds = %3
  br label %13

13:                                               ; preds = %31, %12
  %14 = load i64, ptr %7, align 8, !tbaa !19
  %15 = load ptr, ptr %5, align 8, !tbaa !3
  %16 = call noundef i64 @_ZNK4base16BasicStringPieceINSt7__cxx1112basic_stringIcSt11char_traitsIcESaIcEEEE4sizeEv(ptr noundef nonnull align 8 dereferenceable(16) %15)
  %17 = icmp ult i64 %14, %16
  br i1 %17, label %18, label %34

18:                                               ; preds = %13
  %19 = load ptr, ptr %5, align 8, !tbaa !3
  %20 = call noundef ptr @_ZNK4base16BasicStringPieceINSt7__cxx1112basic_stringIcSt11char_traitsIcESaIcEEEE4dataEv(ptr noundef nonnull align 8 dereferenceable(16) %19)
  %21 = load i64, ptr %7, align 8, !tbaa !19
  %22 = getelementptr inbounds nuw i8, ptr %20, i64 %21
  %23 = load i8, ptr %22, align 1, !tbaa !25
  %24 = sext i8 %23 to i32
  %25 = load i8, ptr %6, align 1, !tbaa !25
  %26 = sext i8 %25 to i32
  %27 = icmp ne i32 %24, %26
  br i1 %27, label %28, label %30

28:                                               ; preds = %18
  %29 = load i64, ptr %7, align 8, !tbaa !19
  store i64 %29, ptr %4, align 8
  br label %35

30:                                               ; preds = %18
  br label %31

31:                                               ; preds = %30
  %32 = load i64, ptr %7, align 8, !tbaa !19
  %33 = add i64 %32, 1
  store i64 %33, ptr %7, align 8, !tbaa !19
  br label %13, !llvm.loop !83

34:                                               ; preds = %13
  store i64 -1, ptr %4, align 8
  br label %35

35:                                               ; preds = %34, %28, %11
  %36 = load i64, ptr %4, align 8
  ret i64 %36
}

; Function Attrs: mustprogress uwtable
define noundef i64 @_ZN4base8internal17find_first_not_ofERKNS_16BasicStringPieceINSt7__cxx1112basic_stringIcSt11char_traitsIcESaIcEEEEEcm(ptr noundef nonnull align 8 dereferenceable(16) %0, i8 noundef signext %1, i64 noundef %2) #1 {
  %4 = alloca ptr, align 8
  %5 = alloca i8, align 1
  %6 = alloca i64, align 8
  store ptr %0, ptr %4, align 8, !tbaa !3
  store i8 %1, ptr %5, align 1, !tbaa !25
  store i64 %2, ptr %6, align 8, !tbaa !19
  %7 = load ptr, ptr %4, align 8, !tbaa !3
  %8 = load i8, ptr %5, align 1, !tbaa !25
  %9 = load i64, ptr %6, align 8, !tbaa !19
  %10 = call noundef i64 @_ZN4base8internal18find_first_not_ofTINSt7__cxx1112basic_stringIcSt11char_traitsIcESaIcEEEEEmRKNS_16BasicStringPieceIT_EENS9_10value_typeEm(ptr noundef nonnull align 8 dereferenceable(16) %7, i8 noundef signext %8, i64 noundef %9)
  ret i64 %10
}