; Function Attrs: mustprogress nofree norecurse nosync nounwind willreturn memory(read, inaccessiblemem: none) uwtable
define noundef i64 @_ZN4base8internal17find_first_not_ofERKNS_16BasicStringPieceINSt7__cxx1112basic_stringIcSt11char_traitsIcESaIcEEEEEcm(ptr noundef nonnull readonly align 8 captures(none) dereferenceable(16) %0, i8 noundef signext %1, i64 noundef %2) local_unnamed_addr #5 {
  %4 = getelementptr inbounds nuw i8, ptr %0, i64 8
  %5 = load i64, ptr %4, align 8, !tbaa !10
  %6 = icmp ult i64 %2, %5
  br i1 %6, label %.lr.ph.i, label %_ZN4base8internal18find_first_not_ofTINSt7__cxx1112basic_stringIcSt11char_traitsIcESaIcEEEEEmRKNS_16BasicStringPieceIT_EENS9_10value_typeEm.exit

.lr.ph.i:                                         ; preds = %3
  %7 = load ptr, ptr %0, align 8, !tbaa !3
  br label %8

8:                                                ; preds = %11, %.lr.ph.i
  %.09.i = phi i64 [ %2, %.lr.ph.i ], [ %12, %11 ]
  %9 = getelementptr inbounds nuw i8, ptr %7, i64 %.09.i
  %10 = load i8, ptr %9, align 1, !tbaa !16
  %.not.i = icmp eq i8 %10, %1
  br i1 %.not.i, label %11, label %_ZN4base8internal18find_first_not_ofTINSt7__cxx1112basic_stringIcSt11char_traitsIcESaIcEEEEEmRKNS_16BasicStringPieceIT_EENS9_10value_typeEm.exit

11:                                               ; preds = %8
  %12 = add i64 %.09.i, 1
  %exitcond.not.i = icmp eq i64 %12, %5
  br i1 %exitcond.not.i, label %_ZN4base8internal18find_first_not_ofTINSt7__cxx1112basic_stringIcSt11char_traitsIcESaIcEEEEEmRKNS_16BasicStringPieceIT_EENS9_10value_typeEm.exit, label %8, !llvm.loop !30

_ZN4base8internal18find_first_not_ofTINSt7__cxx1112basic_stringIcSt11char_traitsIcESaIcEEEEEmRKNS_16BasicStringPieceIT_EENS9_10value_typeEm.exit: ; preds = %8, %11, %3
  %.08.i = phi i64 [ -1, %3 ], [ -1, %11 ], [ %.09.i, %8 ]
  ret i64 %.08.i
}